target datalayout = "e-m:e-p270:32:32-p271:32:32-p272:64:64-i64:64-i128:128-f80:128-n8:16:32:64-S128"
target triple = "x86_64-pc-linux-gnu"

%struct.yyguts_t = type { ptr, ptr, ptr, i64, i64, ptr, i8, i32, i32, ptr, i32, i32, i32, i32, i32, ptr, i32, ptr, i32, i32, ptr, i32, i32, ptr }
%struct.yy_buffer_state = type { ptr, ptr, ptr, i32, i32, i32, i32, i32, i32, i32, i32, i32 }
%struct._YR_COMPILER = type { i32, i32, i32, i32, i32, [1 x %struct.__jmp_buf_tag], ptr, ptr, ptr, ptr, ptr, ptr, ptr, ptr, ptr, ptr, ptr, ptr, ptr, ptr, i32, i32, [4 x ptr], [4 x ptr], i32, i32, i32, [16 x ptr], i32, [16 x ptr], i32, [256 x i8], [1024 x i8], ptr, i16, [1024 x i8], ptr, %struct.rq, %struct.cs, ptr, i32 }
%struct.__jmp_buf_tag = type { [8 x i64], i32, %struct.__sigset_t }
%struct.__sigset_t = type { [16 x i64] }
%struct.rq = type { ptr, ptr }
%struct.cs = type { ptr, ptr }

@.str.25 = private unnamed_addr constant [20 x i8] c"(file name missing)\00", align 1
@.str.26 = private unnamed_addr constant [26 x i8] c"yyerror(): %s line %d %s\0A\00", align 1
@.str.27 = private unnamed_addr constant [14 x i8] c"NULL filename\00", align 1

; Function Attrs: nounwind uwtable
define i32 @yara_yyget_lineno(ptr noundef %0) #0 {
  %2 = alloca i32, align 4
  %3 = alloca ptr, align 8
  %4 = alloca ptr, align 8
  store ptr %0, ptr %3, align 8
  %5 = load ptr, ptr %3, align 8
  store ptr %5, ptr %4, align 8
  %6 = load ptr, ptr %4, align 8
  %7 = getelementptr inbounds %struct.yyguts_t, ptr %6, i32 0, i32 5
  %8 = load ptr, ptr %7, align 8
  %9 = icmp ne ptr %8, null
  br i1 %9, label %10, label %20

10:                                               ; preds = %1
  %11 = load ptr, ptr %4, align 8
  %12 = getelementptr inbounds %struct.yyguts_t, ptr %11, i32 0, i32 5
  %13 = load ptr, ptr %12, align 8
  %14 = load ptr, ptr %4, align 8
  %15 = getelementptr inbounds %struct.yyguts_t, ptr %14, i32 0, i32 3
  %16 = load i64, ptr %15, align 8
  %17 = getelementptr inbounds ptr, ptr %13, i64 %16
  %18 = load ptr, ptr %17, align 8
  %19 = icmp ne ptr %18, null
  br i1 %19, label %22, label %21

20:                                               ; preds = %1
  br i1 false, label %22, label %21

21:                                               ; preds = %20, %10
  store i32 0, ptr %2, align 4
  br label %33

22:                                               ; preds = %20, %10
  %23 = load ptr, ptr %4, align 8
  %24 = getelementptr inbounds %struct.yyguts_t, ptr %23, i32 0, i32 5
  %25 = load ptr, ptr %24, align 8
  %26 = load ptr, ptr %4, align 8
  %27 = getelementptr inbounds %struct.yyguts_t, ptr %26, i32 0, i32 3
  %28 = load i64, ptr %27, align 8
  %29 = getelementptr inbounds ptr, ptr %25, i64 %28
  %30 = load ptr, ptr %29, align 8
  %31 = getelementptr inbounds %struct.yy_buffer_state, ptr %30, i32 0, i32 8
  %32 = load i32, ptr %31, align 4
  store i32 %32, ptr %2, align 4
  br label %33

33:                                               ; preds = %22, %21
  %34 = load i32, ptr %2, align 4
  ret i32 %34
}

; Function Attrs: nounwind uwtable
define void @yara_yyerror(ptr noundef %0, ptr noundef %1, ptr noundef %2) #0 {
  %4 = alloca ptr, align 8
  %5 = alloca ptr, align 8
  %6 = alloca ptr, align 8
  %7 = alloca [512 x i8], align 16
  %8 = alloca ptr, align 8
  store ptr %0, ptr %4, align 8
  store ptr %1, ptr %5, align 8
  store ptr %2, ptr %6, align 8
  call void @llvm.memset.p0.i64(ptr align 16 %7, i8 0, i64 512, i1 false)
  store ptr null, ptr %8, align 8
  %9 = load ptr, ptr %5, align 8
  %10 = getelementptr inbounds %struct._YR_COMPILER, ptr %9, i32 0, i32 0
  %11 = load i32, ptr %10, align 8
  %12 = add nsw i32 %11, 1
  store i32 %12, ptr %10, align 8
  %13 = load ptr, ptr %5, align 8
  %14 = getelementptr inbounds %struct._YR_COMPILER, ptr %13, i32 0, i32 1
  %15 = load i32, ptr %14, align 4
  %16 = icmp ne i32 %15, 0
  br i1 %16, label %17, label %23

17:                                               ; preds = %3
  %18 = load ptr, ptr %5, align 8
  %19 = getelementptr inbounds %struct._YR_COMPILER, ptr %18, i32 0, i32 1
  %20 = load i32, ptr %19, align 4
  %21 = load ptr, ptr %5, align 8
  %22 = getelementptr inbounds %struct._YR_COMPILER, ptr %21, i32 0, i32 3
  store i32 %20, ptr %22, align 4
  br label %28

23:                                               ; preds = %3
  %24 = load ptr, ptr %4, align 8
  %25 = call i32 @yara_yyget_lineno(ptr noundef %24)
  %26 = load ptr, ptr %5, align 8
  %27 = getelementptr inbounds %struct._YR_COMPILER, ptr %26, i32 0, i32 3
  store i32 %25, ptr %27, align 4
  br label %28

28:                                               ; preds = %23, %17
  %29 = load ptr, ptr %5, align 8
  %30 = getelementptr inbounds %struct._YR_COMPILER, ptr %29, i32 0, i32 1
  store i32 0, ptr %30, align 4
  %31 = load ptr, ptr %5, align 8
  %32 = getelementptr inbounds %struct._YR_COMPILER, ptr %31, i32 0, i32 28
  %33 = load i32, ptr %32, align 8
  %34 = icmp sgt i32 %33, 0
  br i1 %34, label %35, label %45

35:                                               ; preds = %28
  %36 = load ptr, ptr %5, align 8
  %37 = getelementptr inbounds %struct._YR_COMPILER, ptr %36, i32 0, i32 27
  %38 = load ptr, ptr %5, align 8
  %39 = getelementptr inbounds %struct._YR_COMPILER, ptr %38, i32 0, i32 28
  %40 = load i32, ptr %39, align 8
  %41 = sub nsw i32 %40, 1
  %42 = sext i32 %41 to i64
  %43 = getelementptr inbounds [16 x ptr], ptr %37, i64 0, i64 %42
  %44 = load ptr, ptr %43, align 8
  store ptr %44, ptr %8, align 8
  br label %46

45:                                               ; preds = %28
  store ptr null, ptr %8, align 8
  br label %46

46:                                               ; preds = %45, %35
  %47 = load ptr, ptr %6, align 8
  %48 = icmp ne ptr %47, null
  br i1 %48, label %49, label %68

49:                                               ; preds = %46
  %50 = load ptr, ptr %5, align 8
  %51 = getelementptr inbounds %struct._YR_COMPILER, ptr %50, i32 0, i32 31
  %52 = getelementptr inbounds [256 x i8], ptr %51, i64 0, i64 0
  %53 = load ptr, ptr %6, align 8
  %54 = call i64 @cli_strlcpy(ptr noundef %52, ptr noundef %53, i64 noundef 256)
  %55 = load ptr, ptr %5, align 8
  %56 = getelementptr inbounds %struct._YR_COMPILER, ptr %55, i32 0, i32 2
  store i32 11, ptr %56, align 8
  %57 = load ptr, ptr %8, align 8
  %58 = icmp ne ptr %57, null
  br i1 %58, label %59, label %61

59:                                               ; preds = %49
  %60 = load ptr, ptr %8, align 8
  br label %62

61:                                               ; preds = %49
  br label %62

62:                                               ; preds = %61, %59
  %63 = phi ptr [ %60, %59 ], [ @.str.25, %61 ]
  %64 = load ptr, ptr %5, align 8
  %65 = getelementptr inbounds %struct._YR_COMPILER, ptr %64, i32 0, i32 3
  %66 = load i32, ptr %65, align 4
  %67 = load ptr, ptr %6, align 8
  call void (ptr, ...) @cli_errmsg(ptr noundef @.str.26, ptr noundef %63, i32 noundef %66, ptr noundef %67)
  br label %88

68:                                               ; preds = %46
  %69 = load ptr, ptr %5, align 8
  %70 = getelementptr inbounds %struct._YR_COMPILER, ptr %69, i32 0, i32 4
  %71 = load i32, ptr %70, align 8
  %72 = load ptr, ptr %5, align 8
  %73 = getelementptr inbounds %struct._YR_COMPILER, ptr %72, i32 0, i32 2
  store i32 %71, ptr %73, align 8
  %74 = load ptr, ptr %5, align 8
  %75 = getelementptr inbounds [512 x i8], ptr %7, i64 0, i64 0
  %76 = call ptr @yr_compiler_get_error_message(ptr noundef %74, ptr noundef %75, i32 noundef 512)
  %77 = load ptr, ptr %8, align 8
  %78 = icmp ne ptr %77, null
  br i1 %78, label %79, label %81

79:                                               ; preds = %68
  %80 = load ptr, ptr %8, align 8
  br label %82

81:                                               ; preds = %68
  br label %82

82:                                               ; preds = %81, %79
  %83 = phi ptr [ %80, %79 ], [ @.str.27, %81 ]
  %84 = load ptr, ptr %5, align 8
  %85 = getelementptr inbounds %struct._YR_COMPILER, ptr %84, i32 0, i32 3
  %86 = load i32, ptr %85, align 4
  %87 = getelementptr inbounds [512 x i8], ptr %7, i64 0, i64 0
  call void (ptr, ...) @cli_errmsg(ptr noundef @.str.26, ptr noundef %83, i32 noundef %86, ptr noundef %87)
  br label %88

88:                                               ; preds = %82, %62
  %89 = load ptr, ptr %5, align 8
  %90 = getelementptr inbounds %struct._YR_COMPILER, ptr %89, i32 0, i32 4
  store i32 0, ptr %90, align 8
  ret void
}