; Function Attrs: nounwind uwtable
define void @yara_yyerror(ptr nocapture noundef readonly %0, ptr noundef %1, ptr noundef %2) local_unnamed_addr #0 {
  %4 = alloca [512 x i8], align 16
  call void @llvm.memset.p0.i64(ptr noundef nonnull align 16 dereferenceable(512) %4, i8 0, i64 512, i1 false)
  %5 = load i32, ptr %1, align 8
  %6 = add nsw i32 %5, 1
  store i32 %6, ptr %1, align 8
  %7 = getelementptr inbounds i8, ptr %1, i64 4
  %8 = load i32, ptr %7, align 4
  %.not = icmp eq i32 %8, 0
  br i1 %.not, label %9, label %yara_yyget_lineno.exit

9:                                                ; preds = %3
  %10 = getelementptr inbounds i8, ptr %0, i64 40
  %11 = load ptr, ptr %10, align 8
  %.not.i = icmp eq ptr %11, null
  br i1 %.not.i, label %yara_yyget_lineno.exit, label %12

12:                                               ; preds = %9
  %13 = getelementptr inbounds i8, ptr %0, i64 24
  %14 = load i64, ptr %13, align 8
  %15 = getelementptr inbounds ptr, ptr %11, i64 %14
  %16 = load ptr, ptr %15, align 8
  %.not8.i = icmp eq ptr %16, null
  br i1 %.not8.i, label %yara_yyget_lineno.exit, label %17

17:                                               ; preds = %12
  %18 = getelementptr inbounds i8, ptr %16, i64 44
  %19 = load i32, ptr %18, align 4
  br label %yara_yyget_lineno.exit

yara_yyget_lineno.exit:                           ; preds = %17, %12, %9, %3
  %.0.i.sink = phi i32 [ %8, %3 ], [ %19, %17 ], [ 0, %9 ], [ 0, %12 ]
  %20 = getelementptr inbounds i8, ptr %1, i64 12
  store i32 %.0.i.sink, ptr %20, align 4
  store i32 0, ptr %7, align 4
  %21 = getelementptr inbounds i8, ptr %1, i64 552
  %22 = load i32, ptr %21, align 8
  %23 = icmp sgt i32 %22, 0
  br i1 %23, label %24, label %30

24:                                               ; preds = %yara_yyget_lineno.exit
  %25 = getelementptr inbounds i8, ptr %1, i64 424
  %26 = add nsw i32 %22, -1
  %27 = zext nneg i32 %26 to i64
  %28 = getelementptr inbounds [16 x ptr], ptr %25, i64 0, i64 %27
  %29 = load ptr, ptr %28, align 8
  br label %30

30:                                               ; preds = %yara_yyget_lineno.exit, %24
  %.0 = phi ptr [ %29, %24 ], [ null, %yara_yyget_lineno.exit ]
  %.not28 = icmp eq ptr %2, null
  %31 = getelementptr inbounds i8, ptr %1, i64 8
  br i1 %.not28, label %38, label %32

32:                                               ; preds = %30
  %33 = getelementptr inbounds i8, ptr %1, i64 692
  %34 = tail call i64 @cli_strlcpy(ptr noundef nonnull %33, ptr noundef nonnull %2, i64 noundef 256) #30
  store i32 11, ptr %31, align 8
  %.not30 = icmp eq ptr %.0, null
  %35 = select i1 %.not30, ptr @.str.25, ptr %.0
  %36 = getelementptr inbounds i8, ptr %1, i64 12
  %37 = load i32, ptr %36, align 4
  tail call void (ptr, ...) @cli_errmsg(ptr noundef nonnull @.str.26, ptr noundef nonnull %35, i32 noundef %37, ptr noundef nonnull %2) #30
  br label %45

38:                                               ; preds = %30
  %39 = getelementptr inbounds i8, ptr %1, i64 16
  %40 = load i32, ptr %39, align 8
  store i32 %40, ptr %31, align 8
  %41 = call ptr @yr_compiler_get_error_message(ptr noundef nonnull %1, ptr noundef nonnull %4, i32 noundef 512) #30
  %.not29 = icmp eq ptr %.0, null
  %42 = select i1 %.not29, ptr @.str.27, ptr %.0
  %43 = getelementptr inbounds i8, ptr %1, i64 12
  %44 = load i32, ptr %43, align 4
  call void (ptr, ...) @cli_errmsg(ptr noundef nonnull @.str.26, ptr noundef nonnull %42, i32 noundef %44, ptr noundef nonnull %4) #30
  br label %45

45:                                               ; preds = %38, %32
  %46 = getelementptr inbounds i8, ptr %1, i64 16
  store i32 0, ptr %46, align 8
  ret void
}